target datalayout = "e-m:e-p270:32:32-p271:32:32-p272:64:64-i64:64-i128:128-f80:128-n8:16:32:64-S128"
target triple = "x86_64-pc-linux-gnu"

%class.QPointer = type { %class.QWeakPointer }
%class.QWeakPointer = type { ptr, ptr }
%class.QString = type { %struct.QArrayDataPointer }
%struct.QArrayDataPointer = type { ptr, ptr, i64 }
%class.QVariant = type { %"struct.QVariant::Private" }
%"struct.QVariant::Private" = type { %union.anon, i64 }
%union.anon = type { ptr, [16 x i8] }
%class.QSharedPointer = type { ptr, ptr }
%class.QModelIndex = type { i32, i32, i64, ptr }
%class.IOGraphDialog = type { %class.WiresharkDialog.base, ptr, ptr, %class.QPointer, ptr, %class.QList.5, %class.QString, ptr, ptr, i32, %struct.nstime_t, i8, ptr, %class.QPoint, %class.QMenu, ptr, i8, i8, i8, i8, i32, %class.QSharedPointer, %class.QSharedPointer.9 }
%class.WiresharkDialog.base = type <{ %class.GeometryStateDialog, ptr, i8, [7 x i8], %class.QString, %class.QList.1, i32, i8 }>
%class.GeometryStateDialog = type { %class.QDialog, %class.QString, ptr }
%class.QDialog = type { %class.QWidget }
%class.QWidget = type { %class.QObject, %class.QPaintDevice.base, ptr }
%class.QObject = type { ptr, %class.QScopedPointer }
%class.QScopedPointer = type { ptr }
%class.QPaintDevice.base = type <{ ptr, i16 }>
%class.QList.1 = type { %struct.QArrayDataPointer.4 }
%struct.QArrayDataPointer.4 = type { ptr, ptr, i64 }
%class.QList.5 = type { %struct.QArrayDataPointer.8 }
%struct.QArrayDataPointer.8 = type { ptr, ptr, i64 }
%struct.nstime_t = type { i64, i32 }
%class.QPoint = type { i32, i32 }
%class.QMenu = type { %class.QWidget }
%class.QSharedPointer.9 = type { ptr, ptr }
%class.QBrush = type { %"class.std::unique_ptr" }
%"class.std::unique_ptr" = type { %"struct.std::__uniq_ptr_data" }
%"struct.std::__uniq_ptr_data" = type { %"class.std::__uniq_ptr_impl" }
%"class.std::__uniq_ptr_impl" = type { %"class.std::tuple" }
%"class.std::tuple" = type { %"struct.std::_Tuple_impl" }
%"struct.std::_Tuple_impl" = type { %"struct.std::_Head_base.28" }
%"struct.std::_Head_base.28" = type { ptr }
%class.IOGraph = type <{ %class.QObject, i32, i32, ptr, %class.QString, %class.QString, i8, i8, i8, [5 x i8], ptr, ptr, %class.QString, %class.QString, %class.QBrush, i32, [4 x i8], %class.QString, i32, i32, %struct.nstime_t, i8, [7 x i8], %"class.std::vector", i32, [4 x i8] }>
%"class.std::vector" = type { %"struct.std::_Vector_base" }
%"struct.std::_Vector_base" = type { %"struct.std::_Vector_base<_io_graph_item_t, std::allocator<_io_graph_item_t>>::_Vector_impl" }
%"struct.std::_Vector_base<_io_graph_item_t, std::allocator<_io_graph_item_t>>::_Vector_impl" = type { %"struct.std::_Vector_base<_io_graph_item_t, std::allocator<_io_graph_item_t>>::_Vector_impl_data" }
%"struct.std::_Vector_base<_io_graph_item_t, std::allocator<_io_graph_item_t>>::_Vector_impl_data" = type { ptr, ptr, ptr }
%class.QBasicAtomicInteger = type { %"struct.std::atomic" }
%"struct.std::atomic" = type { %"struct.std::__atomic_base" }
%"struct.std::__atomic_base" = type { i32 }
%"struct.QtSharedPointer::ExternalRefCountData" = type { %class.QBasicAtomicInteger, %class.QBasicAtomicInteger, ptr }

@.str.258 = private unnamed_addr constant [88 x i8] c"generated/usr/lib/gcc/x86_64-linux-gnu/12/../../../../include/c++/12/bits/atomic_base.h\00", align 1
@__PRETTY_FUNCTION__._ZNKSt13__atomic_baseIiE4loadESt12memory_order = private unnamed_addr constant [74 x i8] c"__int_type std::__atomic_base<int>::load(memory_order) const [_ITp = int]\00", align 1
@.str.259 = private unnamed_addr constant [28 x i8] c"__b != memory_order_release\00", align 1
@.str.260 = private unnamed_addr constant [28 x i8] c"__b != memory_order_acq_rel\00", align 1

; Function Attrs: noinline noreturn nounwind null_pointer_is_valid sspstrong uwtable
define linkonce_odr hidden void @__clang_call_terminate(ptr noundef %0) #11 comdat {
  %2 = call ptr @__cxa_begin_catch(ptr %0) #2
  call void @_ZSt9terminatev() #33
  unreachable
}

; Function Attrs: mustprogress nounwind null_pointer_is_valid sspstrong uwtable
define linkonce_odr noundef i32 @_ZStanSt12memory_orderSt23__memory_order_modifier(i32 noundef %0, i32 noundef %1) #7 comdat {
  %3 = alloca i32, align 4
  %4 = alloca i32, align 4
  store i32 %0, ptr %3, align 4
  store i32 %1, ptr %4, align 4
  %5 = load i32, ptr %3, align 4
  %6 = load i32, ptr %4, align 4
  %7 = and i32 %5, %6
  ret i32 %7
}

; Function Attrs: alwaysinline mustprogress nounwind null_pointer_is_valid sspstrong uwtable
define linkonce_odr noundef i32 @_ZNKSt13__atomic_baseIiE4loadESt12memory_order(ptr noundef align 4 dereferenceable_or_null(4) %0, i32 noundef %1) #14 comdat align 2 personality ptr @__gxx_personality_v0 {
  %3 = alloca ptr, align 8
  %4 = alloca i32, align 4
  %5 = alloca i32, align 4
  %6 = alloca i32, align 4
  store ptr %0, ptr %3, align 8
  store i32 %1, ptr %4, align 4
  %7 = load ptr, ptr %3, align 8
  call void @llvm.lifetime.start.p0(i64 4, ptr %5) #2
  %8 = load i32, ptr %4, align 4
  %9 = invoke noundef i32 @_ZStanSt12memory_orderSt23__memory_order_modifier(i32 noundef %8, i32 noundef 65535)
          to label %10 unwind label %43

10:                                               ; preds = %2
  store i32 %9, ptr %5, align 4
  br label %11

11:                                               ; preds = %10
  %12 = load i32, ptr %5, align 4
  %13 = icmp ne i32 %12, 3
  %14 = xor i1 %13, true
  %15 = zext i1 %14 to i64
  %16 = call i64 @llvm.expect.i64(i64 %15, i64 0)
  %17 = icmp ne i64 %16, 0
  br i1 %17, label %18, label %19

18:                                               ; preds = %11
  call void @_ZSt21__glibcxx_assert_failPKciS0_S0_(ptr noundef @.str.258, i32 noundef 485, ptr noundef @__PRETTY_FUNCTION__._ZNKSt13__atomic_baseIiE4loadESt12memory_order, ptr noundef @.str.259) #33
  unreachable

19:                                               ; preds = %11
  br label %20

20:                                               ; preds = %19
  br label %21

21:                                               ; preds = %20
  br label %22

22:                                               ; preds = %21
  %23 = load i32, ptr %5, align 4
  %24 = icmp ne i32 %23, 4
  %25 = xor i1 %24, true
  %26 = zext i1 %25 to i64
  %27 = call i64 @llvm.expect.i64(i64 %26, i64 0)
  %28 = icmp ne i64 %27, 0
  br i1 %28, label %29, label %30

29:                                               ; preds = %22
  call void @_ZSt21__glibcxx_assert_failPKciS0_S0_(ptr noundef @.str.258, i32 noundef 486, ptr noundef @__PRETTY_FUNCTION__._ZNKSt13__atomic_baseIiE4loadESt12memory_order, ptr noundef @.str.260) #33
  unreachable

30:                                               ; preds = %22
  br label %31

31:                                               ; preds = %30
  br label %32

32:                                               ; preds = %31
  %33 = getelementptr inbounds nuw %"struct.std::__atomic_base", ptr %7, i32 0, i32 0
  %34 = load i32, ptr %4, align 4
  switch i32 %34, label %35 [
    i32 1, label %37
    i32 2, label %37
    i32 5, label %39
  ]

35:                                               ; preds = %32
  %36 = load atomic i32, ptr %33 monotonic, align 4
  store i32 %36, ptr %6, align 4
  br label %41

37:                                               ; preds = %32, %32
  %38 = load atomic i32, ptr %33 acquire, align 4
  store i32 %38, ptr %6, align 4
  br label %41

39:                                               ; preds = %32
  %40 = load atomic i32, ptr %33 seq_cst, align 4
  store i32 %40, ptr %6, align 4
  br label %41

41:                                               ; preds = %39, %37, %35
  %42 = load i32, ptr %6, align 4
  call void @llvm.lifetime.end.p0(i64 4, ptr %5) #2
  ret i32 %42

43:                                               ; preds = %2
  %44 = landingpad { ptr, i32 }
          catch ptr null
  %45 = extractvalue { ptr, i32 } %44, 0
  call void @__clang_call_terminate(ptr %45) #33
  unreachable
}

; Function Attrs: inlinehint mustprogress nounwind null_pointer_is_valid sspstrong uwtable
define linkonce_odr noundef i32 @_ZN10QAtomicOpsIiE11loadRelaxedIiEET_RKSt6atomicIS2_E(ptr noundef align 4 dereferenceable(4) %0) #1 comdat align 2 {
  %2 = alloca ptr, align 8
  store ptr %0, ptr %2, align 8
  %3 = load ptr, ptr %2, align 8
  %4 = call noundef i32 @_ZNKSt13__atomic_baseIiE4loadESt12memory_order(ptr noundef align 4 dereferenceable_or_null(4) %3, i32 noundef 0) #2
  ret i32 %4
}

; Function Attrs: mustprogress nounwind null_pointer_is_valid sspstrong uwtable
define linkonce_odr noundef ptr @_ZNK17QArrayDataPointerIP7IOGraphE4dataEv(ptr noundef align 8 dereferenceable_or_null(24) %0) #7 comdat align 2 {
  %2 = alloca ptr, align 8
  store ptr %0, ptr %2, align 8
  %3 = load ptr, ptr %2, align 8
  %4 = getelementptr inbounds nuw %struct.QArrayDataPointer.8, ptr %3, i32 0, i32 1
  %5 = load ptr, ptr %4, align 8
  ret ptr %5
}

; Function Attrs: mustprogress nounwind null_pointer_is_valid sspstrong uwtable
define linkonce_odr noundef i32 @_ZNK19QBasicAtomicIntegerIiE11loadRelaxedEv(ptr noundef align 4 dereferenceable_or_null(4) %0) #7 comdat align 2 {
  %2 = alloca ptr, align 8
  store ptr %0, ptr %2, align 8
  %3 = load ptr, ptr %2, align 8
  %4 = getelementptr inbounds nuw %class.QBasicAtomicInteger, ptr %3, i32 0, i32 0
  %5 = call noundef i32 @_ZN10QAtomicOpsIiE11loadRelaxedIiEET_RKSt6atomicIS2_E(ptr noundef align 4 dereferenceable(4) %4) #2
  ret i32 %5
}

; Function Attrs: mustprogress nounwind null_pointer_is_valid sspstrong uwtable
define linkonce_odr noundef ptr @_ZNK5QListIP7IOGraphE4dataEv(ptr noundef align 8 dereferenceable_or_null(24) %0) #7 comdat align 2 {
  %2 = alloca ptr, align 8
  store ptr %0, ptr %2, align 8
  %3 = load ptr, ptr %2, align 8
  %4 = getelementptr inbounds nuw %class.QList.5, ptr %3, i32 0, i32 0
  %5 = call noundef ptr @_ZNK17QArrayDataPointerIP7IOGraphEptEv(ptr noundef align 8 dereferenceable_or_null(24) %4) #2
  %6 = call noundef ptr @_ZNK17QArrayDataPointerIP7IOGraphE4dataEv(ptr noundef align 8 dereferenceable_or_null(24) %5) #2
  ret ptr %6
}

; Function Attrs: inlinehint mustprogress nounwind null_pointer_is_valid sspstrong uwtable
define linkonce_odr noundef ptr @_ZNK12QWeakPointerI7QObjectE12internalDataEv(ptr noundef align 8 dereferenceable_or_null(16) %0) #1 comdat align 2 {
  %2 = alloca ptr, align 8
  store ptr %0, ptr %2, align 8
  %3 = load ptr, ptr %2, align 8
  %4 = getelementptr inbounds nuw %class.QWeakPointer, ptr %3, i32 0, i32 0
  %5 = load ptr, ptr %4, align 8
  %6 = icmp eq ptr %5, null
  br i1 %6, label %13, label %7

7:                                                ; preds = %1
  %8 = getelementptr inbounds nuw %class.QWeakPointer, ptr %3, i32 0, i32 0
  %9 = load ptr, ptr %8, align 8
  %10 = getelementptr inbounds nuw %"struct.QtSharedPointer::ExternalRefCountData", ptr %9, i32 0, i32 1
  %11 = call noundef i32 @_ZNK19QBasicAtomicIntegerIiE11loadRelaxedEv(ptr noundef align 4 dereferenceable_or_null(4) %10) #2
  %12 = icmp eq i32 %11, 0
  br i1 %12, label %13, label %14

13:                                               ; preds = %7, %1
  br label %17

14:                                               ; preds = %7
  %15 = getelementptr inbounds nuw %class.QWeakPointer, ptr %3, i32 0, i32 1
  %16 = load ptr, ptr %15, align 8
  br label %17

17:                                               ; preds = %14, %13
  %18 = phi ptr [ null, %13 ], [ %16, %14 ]
  ret ptr %18
}

; Function Attrs: mustprogress nounwind null_pointer_is_valid sspstrong uwtable
define linkonce_odr noundef align 8 dereferenceable(8) ptr @_ZNK5QListIP7IOGraphE2atEx(ptr noundef align 8 dereferenceable_or_null(24) %0, i64 noundef %1) #7 comdat align 2 {
  %3 = alloca ptr, align 8
  %4 = alloca i64, align 8
  store ptr %0, ptr %3, align 8
  store i64 %1, ptr %4, align 8
  %5 = load ptr, ptr %3, align 8
  %6 = call noundef ptr @_ZNK5QListIP7IOGraphE4dataEv(ptr noundef align 8 dereferenceable_or_null(24) %5) #2
  %7 = load i64, ptr %4, align 8
  %8 = getelementptr ptr, ptr %6, i64 %7
  ret ptr %8
}

; Function Attrs: mustprogress nounwind null_pointer_is_valid sspstrong uwtable
define linkonce_odr noundef ptr @_ZNK17QArrayDataPointerIP7IOGraphEptEv(ptr noundef align 8 dereferenceable_or_null(24) %0) #7 comdat align 2 {
  %2 = alloca ptr, align 8
  store ptr %0, ptr %2, align 8
  %3 = load ptr, ptr %2, align 8
  ret ptr %3
}

; Function Attrs: inlinehint mustprogress nounwind null_pointer_is_valid sspstrong uwtable
define linkonce_odr noundef ptr @_ZNK8QPointerI8UatModelE4dataEv(ptr noundef align 8 dereferenceable_or_null(16) %0) #1 comdat align 2 {
  %2 = alloca ptr, align 8
  store ptr %0, ptr %2, align 8
  %3 = load ptr, ptr %2, align 8
  %4 = getelementptr inbounds nuw %class.QPointer, ptr %3, i32 0, i32 0
  %5 = call noundef ptr @_ZNK12QWeakPointerI7QObjectE12internalDataEv(ptr noundef align 8 dereferenceable_or_null(16) %4) #2
  ret ptr %5
}

; Function Attrs: mustprogress nounwind null_pointer_is_valid sspstrong uwtable
define linkonce_odr noundef zeroext i1 @_ZNK7IOGraph7visibleEv(ptr noundef align 8 dereferenceable_or_null(252) %0) #7 comdat align 2 {
  %2 = alloca ptr, align 8
  store ptr %0, ptr %2, align 8
  %3 = load ptr, ptr %2, align 8
  %4 = getelementptr inbounds nuw %class.IOGraph, ptr %3, i32 0, i32 7
  %5 = load i8, ptr %4, align 1, !range !6, !noundef !7
  %6 = trunc i8 %5 to i1
  ret i1 %6
}

; Function Attrs: inlinehint mustprogress nounwind null_pointer_is_valid sspstrong uwtable
define linkonce_odr noundef ptr @_ZNK5QListIP7IOGraphE5valueExS1_(ptr noundef align 8 dereferenceable_or_null(24) %0, i64 noundef %1, ptr noundef %2) #1 comdat align 2 {
  %4 = alloca ptr, align 8
  %5 = alloca i64, align 8
  %6 = alloca ptr, align 8
  store ptr %0, ptr %4, align 8
  store i64 %1, ptr %5, align 8
  store ptr %2, ptr %6, align 8
  %7 = load ptr, ptr %4, align 8
  %8 = load i64, ptr %5, align 8
  %9 = getelementptr inbounds nuw %class.QList.5, ptr %7, i32 0, i32 0
  %10 = call noundef ptr @_ZNK17QArrayDataPointerIP7IOGraphEptEv(ptr noundef align 8 dereferenceable_or_null(24) %9) #2
  %11 = getelementptr inbounds nuw %struct.QArrayDataPointer.8, ptr %10, i32 0, i32 2
  %12 = load i64, ptr %11, align 8
  %13 = icmp ult i64 %8, %12
  br i1 %13, label %14, label %18

14:                                               ; preds = %3
  %15 = load i64, ptr %5, align 8
  %16 = call noundef align 8 dereferenceable(8) ptr @_ZNK5QListIP7IOGraphE2atEx(ptr noundef align 8 dereferenceable_or_null(24) %7, i64 noundef %15) #2
  %17 = load ptr, ptr %16, align 8
  br label %20

18:                                               ; preds = %3
  %19 = load ptr, ptr %6, align 8
  br label %20

20:                                               ; preds = %18, %14
  %21 = phi ptr [ %17, %14 ], [ %19, %18 ]
  ret ptr %21
}

; Function Attrs: inlinehint mustprogress nounwind null_pointer_is_valid sspstrong uwtable
define linkonce_odr void @_ZN11QModelIndexC2Ev(ptr noundef align 8 dereferenceable_or_null(24) %0) unnamed_addr #1 comdat align 2 {
  %2 = alloca ptr, align 8
  store ptr %0, ptr %2, align 8
  %3 = load ptr, ptr %2, align 8
  %4 = getelementptr inbounds nuw %class.QModelIndex, ptr %3, i32 0, i32 0
  store i32 -1, ptr %4, align 8
  %5 = getelementptr inbounds nuw %class.QModelIndex, ptr %3, i32 0, i32 1
  store i32 -1, ptr %5, align 4
  %6 = getelementptr inbounds nuw %class.QModelIndex, ptr %3, i32 0, i32 2
  store i64 0, ptr %6, align 8
  %7 = getelementptr inbounds nuw %class.QModelIndex, ptr %3, i32 0, i32 3
  store ptr null, ptr %7, align 8
  ret void
}

; Function Attrs: inlinehint mustprogress nounwind null_pointer_is_valid sspstrong uwtable
define linkonce_odr noundef ptr @_ZNK8QPointerI8UatModelEptEv(ptr noundef align 8 dereferenceable_or_null(16) %0) #1 comdat align 2 {
  %2 = alloca ptr, align 8
  store ptr %0, ptr %2, align 8
  %3 = load ptr, ptr %2, align 8
  %4 = call noundef ptr @_ZNK8QPointerI8UatModelE4dataEv(ptr noundef align 8 dereferenceable_or_null(16) %3)
  ret ptr %4
}

; Function Attrs: inlinehint mustprogress null_pointer_is_valid sspstrong uwtable
define linkonce_odr noundef ptr @_ZNK8QPointerI8UatModelEcvPS0_Ev(ptr noundef align 8 dereferenceable_or_null(16) %0) #6 comdat align 2 {
  %2 = alloca ptr, align 8
  store ptr %0, ptr %2, align 8
  %3 = load ptr, ptr %2, align 8
  %4 = call noundef ptr @_ZNK8QPointerI8UatModelE4dataEv(ptr noundef align 8 dereferenceable_or_null(16) %3)
  ret ptr %4
}

; Function Attrs: mustprogress null_pointer_is_valid sspstrong uwtable
define noundef zeroext i1 @_ZNK13IOGraphDialog14graphIsEnabledEi(ptr noundef align 8 dereferenceable_or_null(384) %0, i32 noundef %1) #3 align 2 personality ptr @__gxx_personality_v0 {
  %3 = alloca i1, align 1
  %4 = alloca ptr, align 8
  %5 = alloca i32, align 4
  %6 = alloca i32, align 4
  %7 = alloca %class.QVariant, align 8
  %8 = alloca %class.QModelIndex, align 8
  %9 = alloca %class.QModelIndex, align 8
  %10 = alloca ptr, align 8
  %11 = alloca i32, align 4
  %12 = alloca ptr, align 8
  store ptr %0, ptr %4, align 8
  store i32 %1, ptr %5, align 4
  %13 = load ptr, ptr %4, align 8
  %14 = getelementptr inbounds nuw %class.IOGraphDialog, ptr %13, i32 0, i32 3
  %15 = call noundef ptr @_ZNK8QPointerI8UatModelEcvPS0_Ev(ptr noundef align 8 dereferenceable_or_null(16) %14)
  %16 = icmp ne ptr %15, null
  br i1 %16, label %17, label %37

17:                                               ; preds = %2
  call void @llvm.lifetime.start.p0(i64 4, ptr %6) #2
  call void @llvm.lifetime.start.p0(i64 32, ptr %7) #2
  %18 = getelementptr inbounds nuw %class.IOGraphDialog, ptr %13, i32 0, i32 3
  %19 = call noundef ptr @_ZNK8QPointerI8UatModelEptEv(ptr noundef align 8 dereferenceable_or_null(16) %18)
  call void @llvm.lifetime.start.p0(i64 24, ptr %8) #2
  %20 = getelementptr inbounds nuw %class.IOGraphDialog, ptr %13, i32 0, i32 3
  %21 = call noundef ptr @_ZNK8QPointerI8UatModelEptEv(ptr noundef align 8 dereferenceable_or_null(16) %20)
  %22 = load i32, ptr %5, align 4
  call void @llvm.lifetime.start.p0(i64 24, ptr %9) #2
  call void @_ZN11QModelIndexC2Ev(ptr noundef align 8 dereferenceable_or_null(24) %9) #2
  %23 = load ptr, ptr %21, align 8
  %24 = getelementptr inbounds ptr, ptr %23, i64 12
  %25 = load ptr, ptr %24, align 8
  call void %25(ptr dead_on_unwind writable sret(%class.QModelIndex) align 8 %8, ptr noundef align 8 dereferenceable_or_null(16) %21, i32 noundef %22, i32 noundef 0, ptr noundef align 8 dereferenceable(24) %9)
  %26 = load ptr, ptr %19, align 8
  %27 = getelementptr inbounds ptr, ptr %26, i64 18
  %28 = load ptr, ptr %27, align 8
  call void %28(ptr dead_on_unwind writable sret(%class.QVariant) align 8 %7, ptr noundef align 8 dereferenceable_or_null(80) %19, ptr noundef align 8 dereferenceable(24) %8, i32 noundef 10)
  %29 = invoke noundef i32 @_ZNK8QVariant5toIntEPb(ptr noundef align 8 dereferenceable_or_null(32) %7, ptr noundef null)
          to label %30 unwind label %33

30:                                               ; preds = %17
  call void @_ZN8QVariantD1Ev(ptr noundef align 8 dereferenceable_or_null(32) %7) #2
  call void @llvm.lifetime.end.p0(i64 24, ptr %9) #2
  call void @llvm.lifetime.end.p0(i64 24, ptr %8) #2
  call void @llvm.lifetime.end.p0(i64 32, ptr %7) #2
  store i32 %29, ptr %6, align 4
  %31 = load i32, ptr %6, align 4
  %32 = icmp eq i32 %31, 2
  store i1 %32, ptr %3, align 1
  call void @llvm.lifetime.end.p0(i64 4, ptr %6) #2
  br label %49

33:                                               ; preds = %17
  %34 = landingpad { ptr, i32 }
          cleanup
  %35 = extractvalue { ptr, i32 } %34, 0
  store ptr %35, ptr %10, align 8
  %36 = extractvalue { ptr, i32 } %34, 1
  store i32 %36, ptr %11, align 4
  call void @_ZN8QVariantD1Ev(ptr noundef align 8 dereferenceable_or_null(32) %7) #2
  call void @llvm.lifetime.end.p0(i64 24, ptr %9) #2
  call void @llvm.lifetime.end.p0(i64 24, ptr %8) #2
  call void @llvm.lifetime.end.p0(i64 32, ptr %7) #2
  call void @llvm.lifetime.end.p0(i64 4, ptr %6) #2
  br label %51

37:                                               ; preds = %2
  call void @llvm.lifetime.start.p0(i64 8, ptr %12) #2
  %38 = getelementptr inbounds nuw %class.IOGraphDialog, ptr %13, i32 0, i32 5
  %39 = load i32, ptr %5, align 4
  %40 = sext i32 %39 to i64
  %41 = call noundef ptr @_ZNK5QListIP7IOGraphE5valueExS1_(ptr noundef align 8 dereferenceable_or_null(24) %38, i64 noundef %40, ptr noundef null)
  store ptr %41, ptr %12, align 8
  %42 = load ptr, ptr %12, align 8
  %43 = icmp ne ptr %42, null
  br i1 %43, label %44, label %47

44:                                               ; preds = %37
  %45 = load ptr, ptr %12, align 8
  %46 = call noundef zeroext i1 @_ZNK7IOGraph7visibleEv(ptr noundef align 8 dereferenceable_or_null(252) %45)
  br label %47

47:                                               ; preds = %44, %37
  %48 = phi i1 [ false, %37 ], [ %46, %44 ]
  store i1 %48, ptr %3, align 1
  call void @llvm.lifetime.end.p0(i64 8, ptr %12) #2
  br label %49

49:                                               ; preds = %47, %30
  %50 = load i1, ptr %3, align 1
  ret i1 %50

51:                                               ; preds = %33
  %52 = load ptr, ptr %10, align 8
  %53 = load i32, ptr %11, align 4
  %54 = insertvalue { ptr, i32 } poison, ptr %52, 0
  %55 = insertvalue { ptr, i32 } %54, i32 %53, 1
  resume { ptr, i32 } %55
}