; Function Attrs: mustprogress null_pointer_is_valid sspstrong uwtable
define noundef zeroext i1 @_ZNK13IOGraphDialog14graphIsEnabledEi(ptr noundef readonly align 8 captures(none) dereferenceable_or_null(384) %0, i32 noundef %1) local_unnamed_addr #2 align 2 personality ptr @__gxx_personality_v0 {
  %3 = alloca %class.QVariant, align 8
  %4 = alloca %class.QModelIndex, align 8
  %5 = alloca %class.QModelIndex, align 8
  %6 = getelementptr inbounds nuw i8, ptr %0, i64 160
  %7 = load ptr, ptr %6, align 8
  %8 = icmp eq ptr %7, null
  br i1 %8, label %_ZNK8QPointerI8UatModelEcvPS0_Ev.exit.thread, label %9

9:                                                ; preds = %2
  %10 = getelementptr inbounds nuw i8, ptr %7, i64 4
  %11 = load atomic i32, ptr %10 monotonic, align 4
  %12 = icmp eq i32 %11, 0
  br i1 %12, label %_ZNK8QPointerI8UatModelEcvPS0_Ev.exit.thread, label %_ZNK8QPointerI8UatModelEcvPS0_Ev.exit

_ZNK8QPointerI8UatModelEcvPS0_Ev.exit:            ; preds = %9
  %13 = getelementptr inbounds nuw i8, ptr %0, i64 168
  %14 = load ptr, ptr %13, align 8
  %.not = icmp eq ptr %14, null
  br i1 %.not, label %_ZNK8QPointerI8UatModelEcvPS0_Ev.exit.thread, label %_ZNK8QPointerI8UatModelEptEv.exit10

_ZNK8QPointerI8UatModelEptEv.exit10:              ; preds = %_ZNK8QPointerI8UatModelEcvPS0_Ev.exit
  call void @llvm.lifetime.start.p0(i64 32, ptr nonnull %3) #33
  %15 = load atomic i32, ptr %10 monotonic, align 4
  %16 = icmp eq i32 %15, 0
  %spec.select = select i1 %16, ptr null, ptr %14
  call void @llvm.lifetime.start.p0(i64 24, ptr nonnull %4) #33
  %17 = load atomic i32, ptr %10 monotonic, align 4
  %18 = icmp eq i32 %17, 0
  %19 = select i1 %18, ptr null, ptr %14
  call void @llvm.lifetime.start.p0(i64 24, ptr nonnull %5) #33
  store i32 -1, ptr %5, align 8
  %20 = getelementptr inbounds nuw i8, ptr %5, i64 4
  store i32 -1, ptr %20, align 4
  %21 = getelementptr inbounds nuw i8, ptr %5, i64 8
  call void @llvm.memset.p0.i64(ptr noundef nonnull align 8 dereferenceable(16) %21, i8 0, i64 16, i1 false)
  %22 = load ptr, ptr %19, align 8
  %23 = getelementptr inbounds nuw i8, ptr %22, i64 96
  %24 = load ptr, ptr %23, align 8
  call void %24(ptr dead_on_unwind nonnull writable sret(%class.QModelIndex) align 8 %4, ptr noundef align 8 dereferenceable_or_null(16) %19, i32 noundef %1, i32 noundef 0, ptr noundef nonnull align 8 dereferenceable(24) %5)
  %25 = load ptr, ptr %spec.select, align 8
  %26 = getelementptr inbounds nuw i8, ptr %25, i64 144
  %27 = load ptr, ptr %26, align 8
  call void %27(ptr dead_on_unwind nonnull writable sret(%class.QVariant) align 8 %3, ptr noundef align 8 dereferenceable_or_null(80) %spec.select, ptr noundef nonnull align 8 dereferenceable(24) %4, i32 noundef 10)
  %28 = invoke noundef i32 @_ZNK8QVariant5toIntEPb(ptr noundef nonnull align 8 dereferenceable_or_null(32) %3, ptr noundef null)
          to label %29 unwind label %31

29:                                               ; preds = %_ZNK8QPointerI8UatModelEptEv.exit10
  call void @_ZN8QVariantD1Ev(ptr noundef nonnull align 8 dereferenceable_or_null(32) %3) #33
  call void @llvm.lifetime.end.p0(i64 24, ptr nonnull %5) #33
  call void @llvm.lifetime.end.p0(i64 24, ptr nonnull %4) #33
  call void @llvm.lifetime.end.p0(i64 32, ptr nonnull %3) #33
  %30 = icmp eq i32 %28, 2
  br label %_ZNK5QListIP7IOGraphE5valueExS1_.exit.thread

31:                                               ; preds = %_ZNK8QPointerI8UatModelEptEv.exit10
  %32 = landingpad { ptr, i32 }
          cleanup
  call void @_ZN8QVariantD1Ev(ptr noundef nonnull align 8 dereferenceable_or_null(32) %3) #33
  call void @llvm.lifetime.end.p0(i64 24, ptr nonnull %5) #33
  call void @llvm.lifetime.end.p0(i64 24, ptr nonnull %4) #33
  call void @llvm.lifetime.end.p0(i64 32, ptr nonnull %3) #33
  resume { ptr, i32 } %32

_ZNK8QPointerI8UatModelEcvPS0_Ev.exit.thread:     ; preds = %2, %9, %_ZNK8QPointerI8UatModelEcvPS0_Ev.exit
  %33 = sext i32 %1 to i64
  %34 = getelementptr inbounds nuw i8, ptr %0, i64 200
  %35 = load i64, ptr %34, align 8
  %36 = icmp ugt i64 %35, %33
  br i1 %36, label %_ZNK5QListIP7IOGraphE5valueExS1_.exit, label %_ZNK5QListIP7IOGraphE5valueExS1_.exit.thread

_ZNK5QListIP7IOGraphE5valueExS1_.exit:            ; preds = %_ZNK8QPointerI8UatModelEcvPS0_Ev.exit.thread
  %37 = getelementptr inbounds nuw i8, ptr %0, i64 192
  %38 = load ptr, ptr %37, align 8
  %39 = getelementptr ptr, ptr %38, i64 %33
  %40 = load ptr, ptr %39, align 8
  %.not9 = icmp eq ptr %40, null
  br i1 %.not9, label %_ZNK5QListIP7IOGraphE5valueExS1_.exit.thread, label %41

41:                                               ; preds = %_ZNK5QListIP7IOGraphE5valueExS1_.exit
  %42 = getelementptr inbounds nuw i8, ptr %40, i64 81
  %43 = load i8, ptr %42, align 1, !range !12, !noundef !13
  %44 = trunc nuw i8 %43 to i1
  br label %_ZNK5QListIP7IOGraphE5valueExS1_.exit.thread

_ZNK5QListIP7IOGraphE5valueExS1_.exit.thread:     ; preds = %_ZNK8QPointerI8UatModelEcvPS0_Ev.exit.thread, %_ZNK5QListIP7IOGraphE5valueExS1_.exit, %41, %29
  %.0 = phi i1 [ %30, %29 ], [ false, %_ZNK5QListIP7IOGraphE5valueExS1_.exit ], [ %44, %41 ], [ false, %_ZNK8QPointerI8UatModelEcvPS0_Ev.exit.thread ]
  ret i1 %.0
}